target datalayout = "e-m:e-p270:32:32-p271:32:32-p272:64:64-i64:64-i128:128-f80:128-n8:16:32:64-S128"
target triple = "x86_64-pc-linux-gnu"

@hf_mikey = internal global [71 x i32] zeroinitializer, align 16
@.str.301 = private unnamed_addr constant [8 x i8] c"Unknown\00", align 1
@.str.305 = private unnamed_addr constant [10 x i8] c" Type: %s\00", align 1

; Function Attrs: null_pointer_is_valid sspstrong uwtable
define internal i32 @dissect_payload_t(ptr noundef %0, ptr noundef %1, ptr noundef %2, ptr noundef %3) #0 {
  %5 = alloca ptr, align 8
  %6 = alloca ptr, align 8
  %7 = alloca ptr, align 8
  %8 = alloca ptr, align 8
  %9 = alloca i8, align 1
  %10 = alloca i32, align 4
  %11 = alloca i32, align 4
  %12 = alloca ptr, align 8
  store ptr %0, ptr %5, align 8
  store ptr %1, ptr %6, align 8
  store ptr %2, ptr %7, align 8
  store ptr %3, ptr %8, align 8
  call void @llvm.lifetime.start.p0(i64 1, ptr %9) #5
  call void @llvm.lifetime.start.p0(i64 4, ptr %10) #5
  store i32 0, ptr %10, align 4
  call void @llvm.lifetime.start.p0(i64 4, ptr %11) #5
  store i32 0, ptr %11, align 4
  %13 = load ptr, ptr %6, align 8
  %14 = load i32, ptr %10, align 4
  %15 = add i32 %14, 1
  %16 = call zeroext i8 @tvb_get_uint8(ptr noundef %13, i32 noundef %15)
  store i8 %16, ptr %9, align 1
  %17 = load ptr, ptr %8, align 8
  %18 = icmp ne ptr %17, null
  br i1 %18, label %19, label %32

19:                                               ; preds = %4
  call void @llvm.lifetime.start.p0(i64 8, ptr %12) #5
  %20 = load ptr, ptr %8, align 8
  %21 = call ptr @proto_tree_get_parent(ptr noundef %20)
  store ptr %21, ptr %12, align 8
  %22 = load ptr, ptr %12, align 8
  %23 = load i8, ptr %9, align 1
  %24 = zext i8 %23 to i32
  %25 = call ptr @val_to_str_const(i32 noundef %24, ptr noundef @ts_type_vals, ptr noundef @.str.301)
  call void (ptr, ptr, ...) @proto_item_append_text(ptr noundef %22, ptr noundef @.str.305, ptr noundef %25)
  %26 = load ptr, ptr %8, align 8
  %27 = load i32, ptr getelementptr ([71 x i32], ptr @hf_mikey, i64 0, i64 26), align 8
  %28 = load ptr, ptr %6, align 8
  %29 = load i32, ptr %10, align 4
  %30 = add i32 %29, 1
  %31 = call ptr @proto_tree_add_item(ptr noundef %26, i32 noundef %27, ptr noundef %28, i32 noundef %30, i32 noundef 1, i32 noundef 0)
  call void @llvm.lifetime.end.p0(i64 8, ptr %12) #5
  br label %32

32:                                               ; preds = %19, %4
  %33 = load i8, ptr %9, align 1
  %34 = zext i8 %33 to i32
  switch i32 %34, label %43 [
    i32 1, label %35
    i32 0, label %35
    i32 2, label %42
  ]

35:                                               ; preds = %32, %32
  %36 = load ptr, ptr %8, align 8
  %37 = load i32, ptr getelementptr ([71 x i32], ptr @hf_mikey, i64 0, i64 27), align 4
  %38 = load ptr, ptr %6, align 8
  %39 = load i32, ptr %10, align 4
  %40 = add i32 %39, 2
  %41 = call ptr @proto_tree_add_item(ptr noundef %36, i32 noundef %37, ptr noundef %38, i32 noundef %40, i32 noundef 8, i32 noundef 2)
  store i32 10, ptr %11, align 4
  br label %44

42:                                               ; preds = %32
  store i32 6, ptr %11, align 4
  br label %44

43:                                               ; preds = %32
  store i32 0, ptr %11, align 4
  br label %44

44:                                               ; preds = %43, %42, %35
  %45 = load i32, ptr %11, align 4
  call void @llvm.lifetime.end.p0(i64 4, ptr %11) #5
  call void @llvm.lifetime.end.p0(i64 4, ptr %10) #5
  call void @llvm.lifetime.end.p0(i64 1, ptr %9) #5
  ret i32 %45
}