; Function Attrs: null_pointer_is_valid sspstrong uwtable
define internal range(i32 0, 11) i32 @dissect_payload_t(ptr readnone captures(none) %0, ptr noundef %1, ptr readnone captures(none) %2, ptr noundef %3) #0 {
  %5 = tail call zeroext i8 @tvb_get_uint8(ptr noundef %1, i32 noundef 1)
  %.not = icmp eq ptr %3, null
  br i1 %.not, label %12, label %6

6:                                                ; preds = %4
  %7 = tail call ptr @proto_tree_get_parent(ptr noundef nonnull %3)
  %8 = zext i8 %5 to i32
  %9 = tail call ptr @val_to_str_const(i32 noundef %8, ptr noundef nonnull @ts_type_vals, ptr noundef nonnull @.str.301)
  tail call void (ptr, ptr, ...) @proto_item_append_text(ptr noundef %7, ptr noundef nonnull @.str.305, ptr noundef %9)
  %10 = load i32, ptr getelementptr inbounds nuw (i8, ptr @hf_mikey, i64 104), align 8
  %11 = tail call ptr @proto_tree_add_item(ptr noundef nonnull %3, i32 noundef %10, ptr noundef %1, i32 noundef 1, i32 noundef 1, i32 noundef 0)
  br label %12

12:                                               ; preds = %6, %4
  switch i8 %5, label %16 [
    i8 1, label %13
    i8 0, label %13
    i8 2, label %17
  ]

13:                                               ; preds = %12, %12
  %14 = load i32, ptr getelementptr inbounds nuw (i8, ptr @hf_mikey, i64 108), align 4
  %15 = tail call ptr @proto_tree_add_item(ptr noundef %3, i32 noundef %14, ptr noundef %1, i32 noundef 2, i32 noundef 8, i32 noundef 2)
  br label %17

16:                                               ; preds = %12
  br label %17

17:                                               ; preds = %12, %16, %13
  %.0 = phi i32 [ 0, %16 ], [ 10, %13 ], [ 6, %12 ]
  ret i32 %.0
}